target datalayout = "e-m:e-p270:32:32-p271:32:32-p272:64:64-i64:64-i128:128-f80:128-n8:16:32:64-S128"
target triple = "x86_64-pc-linux-gnu"

%"class.ncnn::Mat" = type { ptr, ptr, i64, i32, ptr, i32, i32, i32, i32, i32, i64 }

; Function Attrs: alwaysinline mustprogress nounwind uwtable
define internal void @_ZN4ncnnL8fastFreeEPv(ptr noundef %0) #2 {
  %2 = alloca ptr, align 8
  store ptr %0, ptr %2, align 8, !tbaa !32
  %3 = load ptr, ptr %2, align 8, !tbaa !32
  %4 = icmp ne ptr %3, null
  br i1 %4, label %5, label %7

5:                                                ; preds = %1
  %6 = load ptr, ptr %2, align 8, !tbaa !32
  call void @free(ptr noundef %6) #9
  br label %7

7:                                                ; preds = %5, %1
  ret void
}

; Function Attrs: alwaysinline mustprogress nounwind uwtable
define internal noundef ptr @_ZN4ncnnL10fastMallocEm(i64 noundef %0) #2 {
  %2 = alloca i64, align 8
  %3 = alloca ptr, align 8
  store i64 %0, ptr %2, align 8, !tbaa !24
  call void @llvm.lifetime.start.p0(i64 8, ptr %3) #9
  store ptr null, ptr %3, align 8, !tbaa !32
  %4 = load i64, ptr %2, align 8, !tbaa !24
  %5 = add i64 %4, 64
  %6 = call i32 @posix_memalign(ptr noundef %3, i64 noundef 64, i64 noundef %5) #9
  %7 = icmp ne i32 %6, 0
  br i1 %7, label %8, label %9

8:                                                ; preds = %1
  store ptr null, ptr %3, align 8, !tbaa !32
  br label %9

9:                                                ; preds = %8, %1
  %10 = load ptr, ptr %3, align 8, !tbaa !32
  call void @llvm.lifetime.end.p0(i64 8, ptr %3) #9
  ret ptr %10
}

; Function Attrs: alwaysinline mustprogress nounwind uwtable
define linkonce_odr hidden noundef i64 @_ZNK4ncnn3Mat5totalEv(ptr noundef nonnull align 8 dereferenceable(72) %0) #2 comdat align 2 {
  %2 = alloca ptr, align 8
  store ptr %0, ptr %2, align 8, !tbaa !4
  %3 = load ptr, ptr %2, align 8
  %4 = getelementptr inbounds nuw %"class.ncnn::Mat", ptr %3, i32 0, i32 10
  %5 = load i64, ptr %4, align 8, !tbaa !22
  %6 = getelementptr inbounds nuw %"class.ncnn::Mat", ptr %3, i32 0, i32 9
  %7 = load i32, ptr %6, align 8, !tbaa !20
  %8 = sext i32 %7 to i64
  %9 = mul i64 %5, %8
  ret i64 %9
}

; Function Attrs: alwaysinline mustprogress nounwind uwtable
define internal noundef i64 @_ZN4ncnnL9alignSizeEmi(i64 noundef %0, i32 noundef %1) #2 {
  %3 = alloca i64, align 8
  %4 = alloca i32, align 4
  store i64 %0, ptr %3, align 8, !tbaa !24
  store i32 %1, ptr %4, align 4, !tbaa !25
  %5 = load i64, ptr %3, align 8, !tbaa !24
  %6 = load i32, ptr %4, align 4, !tbaa !25
  %7 = sext i32 %6 to i64
  %8 = add i64 %5, %7
  %9 = sub i64 %8, 1
  %10 = load i32, ptr %4, align 4, !tbaa !25
  %11 = sub nsw i32 0, %10
  %12 = sext i32 %11 to i64
  %13 = and i64 %9, %12
  ret i64 %13
}

; Function Attrs: alwaysinline mustprogress uwtable
define linkonce_odr hidden void @_ZN4ncnn3Mat7releaseEv(ptr noundef nonnull align 8 dereferenceable(72) %0) #1 comdat align 2 {
  %2 = alloca ptr, align 8
  %3 = alloca i32, align 4
  %4 = alloca i32, align 4
  store ptr %0, ptr %2, align 8, !tbaa !4
  %5 = load ptr, ptr %2, align 8
  %6 = getelementptr inbounds nuw %"class.ncnn::Mat", ptr %5, i32 0, i32 1
  %7 = load ptr, ptr %6, align 8, !tbaa !28
  %8 = icmp ne ptr %7, null
  br i1 %8, label %9, label %32

9:                                                ; preds = %1
  %10 = getelementptr inbounds nuw %"class.ncnn::Mat", ptr %5, i32 0, i32 1
  %11 = load ptr, ptr %10, align 8, !tbaa !28
  store i32 -1, ptr %3, align 4, !tbaa !25
  %12 = load i32, ptr %3, align 4
  %13 = atomicrmw add ptr %11, i32 %12 acq_rel, align 4
  store i32 %13, ptr %4, align 4
  %14 = load i32, ptr %4, align 4, !tbaa !25
  %15 = icmp eq i32 %14, 1
  br i1 %15, label %16, label %32

16:                                               ; preds = %9
  %17 = getelementptr inbounds nuw %"class.ncnn::Mat", ptr %5, i32 0, i32 4
  %18 = load ptr, ptr %17, align 8, !tbaa !29
  %19 = icmp ne ptr %18, null
  br i1 %19, label %20, label %28

20:                                               ; preds = %16
  %21 = getelementptr inbounds nuw %"class.ncnn::Mat", ptr %5, i32 0, i32 4
  %22 = load ptr, ptr %21, align 8, !tbaa !29
  %23 = getelementptr inbounds nuw %"class.ncnn::Mat", ptr %5, i32 0, i32 0
  %24 = load ptr, ptr %23, align 8, !tbaa !23
  %25 = load ptr, ptr %22, align 8, !tbaa !30
  %26 = getelementptr inbounds ptr, ptr %25, i64 3
  %27 = load ptr, ptr %26, align 8
  call void %27(ptr noundef nonnull align 8 dereferenceable(8) %22, ptr noundef %24)
  br label %31

28:                                               ; preds = %16
  %29 = getelementptr inbounds nuw %"class.ncnn::Mat", ptr %5, i32 0, i32 0
  %30 = load ptr, ptr %29, align 8, !tbaa !23
  call void @_ZN4ncnnL8fastFreeEPv(ptr noundef %30)
  br label %31

31:                                               ; preds = %28, %20
  br label %32

32:                                               ; preds = %31, %9, %1
  %33 = getelementptr inbounds nuw %"class.ncnn::Mat", ptr %5, i32 0, i32 0
  store ptr null, ptr %33, align 8, !tbaa !23
  %34 = getelementptr inbounds nuw %"class.ncnn::Mat", ptr %5, i32 0, i32 2
  store i64 0, ptr %34, align 8, !tbaa !17
  %35 = getelementptr inbounds nuw %"class.ncnn::Mat", ptr %5, i32 0, i32 3
  store i32 0, ptr %35, align 8, !tbaa !18
  %36 = getelementptr inbounds nuw %"class.ncnn::Mat", ptr %5, i32 0, i32 5
  store i32 0, ptr %36, align 8, !tbaa !11
  %37 = getelementptr inbounds nuw %"class.ncnn::Mat", ptr %5, i32 0, i32 6
  store i32 0, ptr %37, align 4, !tbaa !16
  %38 = getelementptr inbounds nuw %"class.ncnn::Mat", ptr %5, i32 0, i32 7
  store i32 0, ptr %38, align 8, !tbaa !19
  %39 = getelementptr inbounds nuw %"class.ncnn::Mat", ptr %5, i32 0, i32 8
  store i32 0, ptr %39, align 4, !tbaa !21
  %40 = getelementptr inbounds nuw %"class.ncnn::Mat", ptr %5, i32 0, i32 9
  store i32 0, ptr %40, align 8, !tbaa !20
  %41 = getelementptr inbounds nuw %"class.ncnn::Mat", ptr %5, i32 0, i32 10
  store i64 0, ptr %41, align 8, !tbaa !22
  %42 = getelementptr inbounds nuw %"class.ncnn::Mat", ptr %5, i32 0, i32 1
  store ptr null, ptr %42, align 8, !tbaa !28
  ret void
}

; Function Attrs: mustprogress uwtable
define hidden void @_ZN4ncnn3Mat6createEiiiimPNS_9AllocatorE(ptr noundef nonnull align 8 dereferenceable(72) %0, i32 noundef %1, i32 noundef %2, i32 noundef %3, i32 noundef %4, i64 noundef %5, ptr noundef %6) #0 align 2 {
  %8 = alloca ptr, align 8
  %9 = alloca i32, align 4
  %10 = alloca i32, align 4
  %11 = alloca i32, align 4
  %12 = alloca i32, align 4
  %13 = alloca i64, align 8
  %14 = alloca ptr, align 8
  %15 = alloca i64, align 8
  store ptr %0, ptr %8, align 8, !tbaa !4
  store i32 %1, ptr %9, align 4, !tbaa !25
  store i32 %2, ptr %10, align 4, !tbaa !25
  store i32 %3, ptr %11, align 4, !tbaa !25
  store i32 %4, ptr %12, align 4, !tbaa !25
  store i64 %5, ptr %13, align 8, !tbaa !24
  store ptr %6, ptr %14, align 8, !tbaa !9
  %16 = load ptr, ptr %8, align 8
  %17 = getelementptr inbounds nuw %"class.ncnn::Mat", ptr %16, i32 0, i32 5
  %18 = load i32, ptr %17, align 8, !tbaa !11
  %19 = icmp eq i32 %18, 4
  br i1 %19, label %20, label %55

20:                                               ; preds = %7
  %21 = getelementptr inbounds nuw %"class.ncnn::Mat", ptr %16, i32 0, i32 6
  %22 = load i32, ptr %21, align 4, !tbaa !16
  %23 = load i32, ptr %9, align 4, !tbaa !25
  %24 = icmp eq i32 %22, %23
  br i1 %24, label %25, label %55

25:                                               ; preds = %20
  %26 = getelementptr inbounds nuw %"class.ncnn::Mat", ptr %16, i32 0, i32 7
  %27 = load i32, ptr %26, align 8, !tbaa !19
  %28 = load i32, ptr %10, align 4, !tbaa !25
  %29 = icmp eq i32 %27, %28
  br i1 %29, label %30, label %55

30:                                               ; preds = %25
  %31 = getelementptr inbounds nuw %"class.ncnn::Mat", ptr %16, i32 0, i32 8
  %32 = load i32, ptr %31, align 4, !tbaa !21
  %33 = load i32, ptr %11, align 4, !tbaa !25
  %34 = icmp eq i32 %32, %33
  br i1 %34, label %35, label %55

35:                                               ; preds = %30
  %36 = getelementptr inbounds nuw %"class.ncnn::Mat", ptr %16, i32 0, i32 9
  %37 = load i32, ptr %36, align 8, !tbaa !20
  %38 = load i32, ptr %12, align 4, !tbaa !25
  %39 = icmp eq i32 %37, %38
  br i1 %39, label %40, label %55

40:                                               ; preds = %35
  %41 = getelementptr inbounds nuw %"class.ncnn::Mat", ptr %16, i32 0, i32 2
  %42 = load i64, ptr %41, align 8, !tbaa !17
  %43 = load i64, ptr %13, align 8, !tbaa !24
  %44 = icmp eq i64 %42, %43
  br i1 %44, label %45, label %55

45:                                               ; preds = %40
  %46 = getelementptr inbounds nuw %"class.ncnn::Mat", ptr %16, i32 0, i32 3
  %47 = load i32, ptr %46, align 8, !tbaa !18
  %48 = icmp eq i32 %47, 1
  br i1 %48, label %49, label %55

49:                                               ; preds = %45
  %50 = getelementptr inbounds nuw %"class.ncnn::Mat", ptr %16, i32 0, i32 4
  %51 = load ptr, ptr %50, align 8, !tbaa !29
  %52 = load ptr, ptr %14, align 8, !tbaa !9
  %53 = icmp eq ptr %51, %52
  br i1 %53, label %54, label %55

54:                                               ; preds = %49
  br label %129

55:                                               ; preds = %49, %45, %40, %35, %30, %25, %20, %7
  call void @_ZN4ncnn3Mat7releaseEv(ptr noundef nonnull align 8 dereferenceable(72) %16)
  %56 = load i64, ptr %13, align 8, !tbaa !24
  %57 = getelementptr inbounds nuw %"class.ncnn::Mat", ptr %16, i32 0, i32 2
  store i64 %56, ptr %57, align 8, !tbaa !17
  %58 = getelementptr inbounds nuw %"class.ncnn::Mat", ptr %16, i32 0, i32 3
  store i32 1, ptr %58, align 8, !tbaa !18
  %59 = load ptr, ptr %14, align 8, !tbaa !9
  %60 = getelementptr inbounds nuw %"class.ncnn::Mat", ptr %16, i32 0, i32 4
  store ptr %59, ptr %60, align 8, !tbaa !29
  %61 = getelementptr inbounds nuw %"class.ncnn::Mat", ptr %16, i32 0, i32 5
  store i32 4, ptr %61, align 8, !tbaa !11
  %62 = load i32, ptr %9, align 4, !tbaa !25
  %63 = getelementptr inbounds nuw %"class.ncnn::Mat", ptr %16, i32 0, i32 6
  store i32 %62, ptr %63, align 4, !tbaa !16
  %64 = load i32, ptr %10, align 4, !tbaa !25
  %65 = getelementptr inbounds nuw %"class.ncnn::Mat", ptr %16, i32 0, i32 7
  store i32 %64, ptr %65, align 8, !tbaa !19
  %66 = load i32, ptr %11, align 4, !tbaa !25
  %67 = getelementptr inbounds nuw %"class.ncnn::Mat", ptr %16, i32 0, i32 8
  store i32 %66, ptr %67, align 4, !tbaa !21
  %68 = load i32, ptr %12, align 4, !tbaa !25
  %69 = getelementptr inbounds nuw %"class.ncnn::Mat", ptr %16, i32 0, i32 9
  store i32 %68, ptr %69, align 8, !tbaa !20
  %70 = getelementptr inbounds nuw %"class.ncnn::Mat", ptr %16, i32 0, i32 6
  %71 = load i32, ptr %70, align 4, !tbaa !16
  %72 = sext i32 %71 to i64
  %73 = getelementptr inbounds nuw %"class.ncnn::Mat", ptr %16, i32 0, i32 7
  %74 = load i32, ptr %73, align 8, !tbaa !19
  %75 = sext i32 %74 to i64
  %76 = mul i64 %72, %75
  %77 = getelementptr inbounds nuw %"class.ncnn::Mat", ptr %16, i32 0, i32 8
  %78 = load i32, ptr %77, align 4, !tbaa !21
  %79 = sext i32 %78 to i64
  %80 = mul i64 %76, %79
  %81 = getelementptr inbounds nuw %"class.ncnn::Mat", ptr %16, i32 0, i32 2
  %82 = load i64, ptr %81, align 8, !tbaa !17
  %83 = mul i64 %80, %82
  %84 = call noundef i64 @_ZN4ncnnL9alignSizeEmi(i64 noundef %83, i32 noundef 16)
  %85 = getelementptr inbounds nuw %"class.ncnn::Mat", ptr %16, i32 0, i32 2
  %86 = load i64, ptr %85, align 8, !tbaa !17
  %87 = udiv i64 %84, %86
  %88 = getelementptr inbounds nuw %"class.ncnn::Mat", ptr %16, i32 0, i32 10
  store i64 %87, ptr %88, align 8, !tbaa !22
  call void @llvm.lifetime.start.p0(i64 8, ptr %15) #9
  %89 = call noundef i64 @_ZNK4ncnn3Mat5totalEv(ptr noundef nonnull align 8 dereferenceable(72) %16)
  %90 = getelementptr inbounds nuw %"class.ncnn::Mat", ptr %16, i32 0, i32 2
  %91 = load i64, ptr %90, align 8, !tbaa !17
  %92 = mul i64 %89, %91
  %93 = call noundef i64 @_ZN4ncnnL9alignSizeEmi(i64 noundef %92, i32 noundef 4)
  store i64 %93, ptr %15, align 8, !tbaa !24
  %94 = load i64, ptr %15, align 8, !tbaa !24
  %95 = icmp ugt i64 %94, 0
  br i1 %95, label %96, label %116

96:                                               ; preds = %55
  %97 = getelementptr inbounds nuw %"class.ncnn::Mat", ptr %16, i32 0, i32 4
  %98 = load ptr, ptr %97, align 8, !tbaa !29
  %99 = icmp ne ptr %98, null
  br i1 %99, label %100, label %110

100:                                              ; preds = %96
  %101 = getelementptr inbounds nuw %"class.ncnn::Mat", ptr %16, i32 0, i32 4
  %102 = load ptr, ptr %101, align 8, !tbaa !29
  %103 = load i64, ptr %15, align 8, !tbaa !24
  %104 = add i64 %103, 4
  %105 = load ptr, ptr %102, align 8, !tbaa !30
  %106 = getelementptr inbounds ptr, ptr %105, i64 2
  %107 = load ptr, ptr %106, align 8
  %108 = call noundef ptr %107(ptr noundef nonnull align 8 dereferenceable(8) %102, i64 noundef %104)
  %109 = getelementptr inbounds nuw %"class.ncnn::Mat", ptr %16, i32 0, i32 0
  store ptr %108, ptr %109, align 8, !tbaa !23
  br label %115

110:                                              ; preds = %96
  %111 = load i64, ptr %15, align 8, !tbaa !24
  %112 = add i64 %111, 4
  %113 = call noundef ptr @_ZN4ncnnL10fastMallocEm(i64 noundef %112)
  %114 = getelementptr inbounds nuw %"class.ncnn::Mat", ptr %16, i32 0, i32 0
  store ptr %113, ptr %114, align 8, !tbaa !23
  br label %115

115:                                              ; preds = %110, %100
  br label %116

116:                                              ; preds = %115, %55
  %117 = getelementptr inbounds nuw %"class.ncnn::Mat", ptr %16, i32 0, i32 0
  %118 = load ptr, ptr %117, align 8, !tbaa !23
  %119 = icmp ne ptr %118, null
  br i1 %119, label %120, label %128

120:                                              ; preds = %116
  %121 = getelementptr inbounds nuw %"class.ncnn::Mat", ptr %16, i32 0, i32 0
  %122 = load ptr, ptr %121, align 8, !tbaa !23
  %123 = load i64, ptr %15, align 8, !tbaa !24
  %124 = getelementptr inbounds nuw i8, ptr %122, i64 %123
  %125 = getelementptr inbounds nuw %"class.ncnn::Mat", ptr %16, i32 0, i32 1
  store ptr %124, ptr %125, align 8, !tbaa !28
  %126 = getelementptr inbounds nuw %"class.ncnn::Mat", ptr %16, i32 0, i32 1
  %127 = load ptr, ptr %126, align 8, !tbaa !28
  store i32 1, ptr %127, align 4, !tbaa !25
  br label %128

128:                                              ; preds = %120, %116
  call void @llvm.lifetime.end.p0(i64 8, ptr %15) #9
  br label %129

129:                                              ; preds = %128, %54
  ret void
}