; Function Attrs: mustprogress uwtable
define hidden void @_ZN4ncnn3Mat6createEiiiimPNS_9AllocatorE(ptr noundef nonnull align 8 captures(none) dereferenceable(72) %0, i32 noundef %1, i32 noundef %2, i32 noundef %3, i32 noundef %4, i64 noundef %5, ptr noundef %6) local_unnamed_addr #0 align 2 {
  %8 = alloca ptr, align 8
  %9 = getelementptr inbounds nuw i8, ptr %0, i64 40
  %10 = load i32, ptr %9, align 8, !tbaa !15
  %11 = icmp eq i32 %10, 4
  %12 = getelementptr inbounds nuw i8, ptr %0, i64 44
  %13 = load i32, ptr %12, align 4
  %14 = icmp eq i32 %13, %1
  %or.cond = select i1 %11, i1 %14, i1 false
  %15 = getelementptr inbounds nuw i8, ptr %0, i64 48
  %16 = load i32, ptr %15, align 8
  %17 = icmp eq i32 %16, %2
  %or.cond24 = select i1 %or.cond, i1 %17, i1 false
  %18 = getelementptr inbounds nuw i8, ptr %0, i64 52
  %19 = load i32, ptr %18, align 4
  %20 = icmp eq i32 %19, %3
  %or.cond27 = select i1 %or.cond24, i1 %20, i1 false
  %21 = getelementptr inbounds nuw i8, ptr %0, i64 56
  %22 = load i32, ptr %21, align 8
  %23 = icmp eq i32 %22, %4
  %or.cond30 = select i1 %or.cond27, i1 %23, i1 false
  %24 = getelementptr inbounds nuw i8, ptr %0, i64 16
  %25 = load i64, ptr %24, align 8
  %26 = icmp eq i64 %25, %5
  %or.cond33 = select i1 %or.cond30, i1 %26, i1 false
  %27 = getelementptr inbounds nuw i8, ptr %0, i64 24
  %28 = load i32, ptr %27, align 8
  %29 = icmp eq i32 %28, 1
  %or.cond36 = select i1 %or.cond33, i1 %29, i1 false
  %30 = getelementptr inbounds nuw i8, ptr %0, i64 32
  %31 = load ptr, ptr %30, align 8
  %32 = icmp eq ptr %31, %6
  %or.cond39 = select i1 %or.cond36, i1 %32, i1 false
  br i1 %or.cond39, label %thread-pre-split.thread, label %33

33:                                               ; preds = %7
  %34 = getelementptr inbounds nuw i8, ptr %0, i64 8
  %35 = load ptr, ptr %34, align 8, !tbaa !19
  %.not.i = icmp eq ptr %35, null
  br i1 %.not.i, label %_ZN4ncnn3Mat7releaseEv.exit, label %36

36:                                               ; preds = %33
  %37 = atomicrmw add ptr %35, i32 -1 acq_rel, align 4
  %38 = icmp eq i32 %37, 1
  br i1 %38, label %39, label %_ZN4ncnn3Mat7releaseEv.exit

39:                                               ; preds = %36
  %40 = load ptr, ptr %30, align 8, !tbaa !30
  %.not3.i = icmp eq ptr %40, null
  %41 = load ptr, ptr %0, align 8, !tbaa !4
  br i1 %.not3.i, label %46, label %42

42:                                               ; preds = %39
  %43 = load ptr, ptr %40, align 8, !tbaa !31
  %44 = getelementptr inbounds nuw i8, ptr %43, i64 24
  %45 = load ptr, ptr %44, align 8
  tail call void %45(ptr noundef nonnull align 8 dereferenceable(8) %40, ptr noundef %41)
  br label %_ZN4ncnn3Mat7releaseEv.exit

46:                                               ; preds = %39
  %.not.i40 = icmp eq ptr %41, null
  br i1 %.not.i40, label %_ZN4ncnn3Mat7releaseEv.exit, label %47

47:                                               ; preds = %46
  tail call void @free(ptr noundef nonnull %41) #12
  br label %_ZN4ncnn3Mat7releaseEv.exit

_ZN4ncnn3Mat7releaseEv.exit:                      ; preds = %47, %46, %33, %36, %42
  %48 = getelementptr inbounds nuw i8, ptr %0, i64 64
  tail call void @llvm.memset.p0.i64(ptr noundef nonnull align 8 dereferenceable(16) %0, i8 0, i64 16, i1 false)
  store i64 %5, ptr %24, align 8, !tbaa !17
  store i32 1, ptr %27, align 8, !tbaa !18
  store ptr %6, ptr %30, align 8, !tbaa !30
  store i32 4, ptr %9, align 8, !tbaa !15
  store i32 %1, ptr %12, align 4, !tbaa !16
  store i32 %2, ptr %15, align 8, !tbaa !20
  store i32 %3, ptr %18, align 4, !tbaa !21
  store i32 %4, ptr %21, align 8, !tbaa !14
  %49 = sext i32 %1 to i64
  %50 = sext i32 %2 to i64
  %51 = mul nsw i64 %50, %49
  %52 = sext i32 %3 to i64
  %53 = mul i64 %51, %52
  %54 = mul i64 %53, %5
  %55 = add i64 %54, 15
  %56 = and i64 %55, -16
  %57 = udiv i64 %56, %5
  store i64 %57, ptr %48, align 8, !tbaa !13
  %58 = sext i32 %4 to i64
  %59 = mul i64 %5, %58
  %60 = mul i64 %59, %57
  %61 = add i64 %60, 3
  %62 = and i64 %61, -4
  %.not = icmp eq i64 %62, 0
  br i1 %.not, label %thread-pre-split.thread, label %63

63:                                               ; preds = %_ZN4ncnn3Mat7releaseEv.exit
  %.not18 = icmp eq ptr %6, null
  br i1 %.not18, label %_ZN4ncnnL10fastMallocEm.exit, label %64

64:                                               ; preds = %63
  %65 = add i64 %62, 4
  %66 = load ptr, ptr %6, align 8, !tbaa !31
  %67 = getelementptr inbounds nuw i8, ptr %66, i64 16
  %68 = load ptr, ptr %67, align 8
  %69 = tail call noundef ptr %68(ptr noundef nonnull align 8 dereferenceable(8) %6, i64 noundef %65)
  br label %thread-pre-split

_ZN4ncnnL10fastMallocEm.exit:                     ; preds = %63
  call void @llvm.lifetime.start.p0(i64 8, ptr nonnull %8) #12
  store ptr null, ptr %8, align 8, !tbaa !33
  %70 = add i64 %62, 68
  %71 = call i32 @posix_memalign(ptr noundef nonnull %8, i64 noundef 64, i64 noundef %70) #12
  %.not.i41 = icmp eq i32 %71, 0
  %.pre = load ptr, ptr %8, align 8
  %72 = select i1 %.not.i41, ptr %.pre, ptr null
  call void @llvm.lifetime.end.p0(i64 8, ptr nonnull %8) #12
  br label %thread-pre-split

thread-pre-split:                                 ; preds = %64, %_ZN4ncnnL10fastMallocEm.exit
  %.sink = phi ptr [ %69, %64 ], [ %72, %_ZN4ncnnL10fastMallocEm.exit ]
  store ptr %.sink, ptr %0, align 8, !tbaa !4
  %.not19 = icmp eq ptr %.sink, null
  br i1 %.not19, label %thread-pre-split.thread, label %73

73:                                               ; preds = %thread-pre-split
  %74 = getelementptr inbounds nuw i8, ptr %.sink, i64 %62
  store ptr %74, ptr %34, align 8, !tbaa !19
  store i32 1, ptr %74, align 4, !tbaa !34
  br label %thread-pre-split.thread

thread-pre-split.thread:                          ; preds = %_ZN4ncnn3Mat7releaseEv.exit, %thread-pre-split, %73, %7
  ret void
}